; ModuleID = '29/122.c'
source_filename = "29/122.c"
target datalayout = "e-m:e-p270:32:32-p271:32:32-p272:64:64-i64:64-f80:128-n8:16:32:64-S128"
target triple = "x86_64-pc-linux-gnu"

@.str = private unnamed_addr constant [3 x i8] c"%d\00", align 1
@.str.1 = private unnamed_addr constant [7 x i8] c"%.3lf\0A\00", align 1

; Function Attrs: noinline nounwind uwtable
define dso_local i32 @main() #0 {
  %1 = alloca i32, align 4
  %2 = alloca i32, align 4
  %3 = alloca i32, align 4
  %4 = alloca [100 x i32], align 16
  %5 = alloca [100 x i32], align 16
  %6 = alloca i32, align 4
  %7 = alloca [100 x i32], align 16
  %8 = alloca [100 x double], align 16
  %9 = alloca [100 x double], align 16
  store i32 0, i32* %1, align 4
  store i32 0, i32* %2, align 4
  store i32 0, i32* %3, align 4
  store i32 0, i32* %6, align 4
  %10 = call i32 (i8*, ...) @__isoc99_scanf(i8* getelementptr inbounds ([3 x i8], [3 x i8]* @.str, i64 0, i64 0), i32* %2)
  store i32 0, i32* %3, align 4
  br label %11

11:                                               ; preds = %20, %0
  %12 = load i32, i32* %3, align 4
  %13 = load i32, i32* %2, align 4
  %14 = icmp slt i32 %12, %13
  br i1 %14, label %15, label %23

15:                                               ; preds = %11
  %16 = load i32, i32* %3, align 4
  %17 = sext i32 %16 to i64
  %18 = getelementptr inbounds [100 x i32], [100 x i32]* %7, i64 0, i64 %17
  %19 = call i32 (i8*, ...) @__isoc99_scanf(i8* getelementptr inbounds ([3 x i8], [3 x i8]* @.str, i64 0, i64 0), i32* %18)
  br label %20

20:                                               ; preds = %15
  %21 = load i32, i32* %3, align 4
  %22 = add nsw i32 %21, 1
  store i32 %22, i32* %3, align 4
  br label %11

23:                                               ; preds = %11
  store i32 0, i32* %3, align 4
  br label %24

24:                                               ; preds = %91, %23
  %25 = load i32, i32* %3, align 4
  %26 = load i32, i32* %2, align 4
  %27 = icmp slt i32 %25, %26
  br i1 %27, label %28, label %94

28:                                               ; preds = %24
  %29 = load i32, i32* %3, align 4
  %30 = sext i32 %29 to i64
  %31 = getelementptr inbounds [100 x double], [100 x double]* %9, i64 0, i64 %30
  store double 0.000000e+00, double* %31, align 8
  store i32 0, i32* %6, align 4
  br label %32

32:                                               ; preds = %87, %28
  %33 = load i32, i32* %6, align 4
  %34 = load i32, i32* %3, align 4
  %35 = sext i32 %34 to i64
  %36 = getelementptr inbounds [100 x i32], [100 x i32]* %7, i64 0, i64 %35
  %37 = load i32, i32* %36, align 4
  %38 = icmp slt i32 %33, %37
  br i1 %38, label %39, label %90

39:                                               ; preds = %32
  %40 = getelementptr inbounds [100 x i32], [100 x i32]* %4, i64 0, i64 0
  store i32 2, i32* %40, align 16
  %41 = getelementptr inbounds [100 x i32], [100 x i32]* %5, i64 0, i64 0
  store i32 1, i32* %41, align 16
  %42 = load i32, i32* %6, align 4
  %43 = sext i32 %42 to i64
  %44 = getelementptr inbounds [100 x i32], [100 x i32]* %4, i64 0, i64 %43
  %45 = load i32, i32* %44, align 4
  %46 = load i32, i32* %6, align 4
  %47 = add nsw i32 %46, 1
  %48 = sext i32 %47 to i64
  %49 = getelementptr inbounds [100 x i32], [100 x i32]* %5, i64 0, i64 %48
  store i32 %45, i32* %49, align 4
  %50 = load i32, i32* %6, align 4
  %51 = sext i32 %50 to i64
  %52 = getelementptr inbounds [100 x i32], [100 x i32]* %4, i64 0, i64 %51
  %53 = load i32, i32* %52, align 4
  %54 = load i32, i32* %6, align 4
  %55 = sext i32 %54 to i64
  %56 = getelementptr inbounds [100 x i32], [100 x i32]* %5, i64 0, i64 %55
  %57 = load i32, i32* %56, align 4
  %58 = add nsw i32 %53, %57
  %59 = load i32, i32* %6, align 4
  %60 = add nsw i32 %59, 1
  %61 = sext i32 %60 to i64
  %62 = getelementptr inbounds [100 x i32], [100 x i32]* %4, i64 0, i64 %61
  store i32 %58, i32* %62, align 4
  %63 = load i32, i32* %6, align 4
  %64 = sext i32 %63 to i64
  %65 = getelementptr inbounds [100 x i32], [100 x i32]* %4, i64 0, i64 %64
  %66 = load i32, i32* %65, align 4
  %67 = sitofp i32 %66 to double
  %68 = fmul double %67, 1.000000e+00
  %69 = load i32, i32* %6, align 4
  %70 = sext i32 %69 to i64
  %71 = getelementptr inbounds [100 x i32], [100 x i32]* %5, i64 0, i64 %70
  %72 = load i32, i32* %71, align 4
  %73 = sitofp i32 %72 to double
  %74 = fdiv double %68, %73
  %75 = load i32, i32* %6, align 4
  %76 = sext i32 %75 to i64
  %77 = getelementptr inbounds [100 x double], [100 x double]* %8, i64 0, i64 %76
  store double %74, double* %77, align 8
  %78 = load i32, i32* %6, align 4
  %79 = sext i32 %78 to i64
  %80 = getelementptr inbounds [100 x double], [100 x double]* %8, i64 0, i64 %79
  %81 = load double, double* %80, align 8
  %82 = load i32, i32* %3, align 4
  %83 = sext i32 %82 to i64
  %84 = getelementptr inbounds [100 x double], [100 x double]* %9, i64 0, i64 %83
  %85 = load double, double* %84, align 8
  %86 = fadd double %85, %81
  store double %86, double* %84, align 8
  br label %87

87:                                               ; preds = %39
  %88 = load i32, i32* %6, align 4
  %89 = add nsw i32 %88, 1
  store i32 %89, i32* %6, align 4
  br label %32

90:                                               ; preds = %32
  br label %91

91:                                               ; preds = %90
  %92 = load i32, i32* %3, align 4
  %93 = add nsw i32 %92, 1
  store i32 %93, i32* %3, align 4
  br label %24

94:                                               ; preds = %24
  store i32 0, i32* %3, align 4
  br label %95

95:                                               ; preds = %105, %94
  %96 = load i32, i32* %3, align 4
  %97 = load i32, i32* %2, align 4
  %98 = icmp slt i32 %96, %97
  br i1 %98, label %99, label %108

99:                                               ; preds = %95
  %100 = load i32, i32* %3, align 4
  %101 = sext i32 %100 to i64
  %102 = getelementptr inbounds [100 x double], [100 x double]* %9, i64 0, i64 %101
  %103 = load double, double* %102, align 8
  %104 = call i32 (i8*, ...) @printf(i8* getelementptr inbounds ([7 x i8], [7 x i8]* @.str.1, i64 0, i64 0), double %103)
  br label %105

105:                                              ; preds = %99
  %106 = load i32, i32* %3, align 4
  %107 = add nsw i32 %106, 1
  store i32 %107, i32* %3, align 4
  br label %95

108:                                              ; preds = %95
  ret i32 0
}

declare dso_local i32 @__isoc99_scanf(i8*, ...) #1

declare dso_local i32 @printf(i8*, ...) #1


!llvm.module.flags = !{!0}
!llvm.ident = !{!1}

!0 = !{i32 1, !"wchar_size", i32 4}
!1 = !{!"clang version 10.0.0-4ubuntu1 "}
