; ModuleID = 'source-C-CXX/28/122.c'
source_filename = "source-C-CXX/28/122.c"
target datalayout = "e-m:e-p270:32:32-p271:32:32-p272:64:64-i64:64-f80:128-n8:16:32:64-S128"
target triple = "x86_64-pc-linux-gnu"

@.str = private unnamed_addr constant [3 x i8] c"%d\00", align 1
@.str.1 = private unnamed_addr constant [7 x i8] c"%.3lf\0A\00", align 1

; Function Attrs: nofree nounwind sspstrong uwtable
define dso_local i32 @main() local_unnamed_addr #0 {
  %1 = alloca i32, align 4
  %2 = alloca [100 x i32], align 16
  %3 = alloca [100 x i32], align 16
  %4 = alloca [100 x i32], align 16
  %5 = alloca [100 x double], align 16
  %6 = bitcast i32* %1 to i8*
  call void @llvm.lifetime.start.p0i8(i64 4, i8* nonnull %6) #3
  store i32 0, i32* %1, align 4, !tbaa !5
  %7 = bitcast [100 x i32]* %2 to i8*
  call void @llvm.lifetime.start.p0i8(i64 400, i8* nonnull %7) #3
  %8 = bitcast [100 x i32]* %3 to i8*
  call void @llvm.lifetime.start.p0i8(i64 400, i8* nonnull %8) #3
  %9 = bitcast [100 x i32]* %4 to i8*
  call void @llvm.lifetime.start.p0i8(i64 400, i8* nonnull %9) #3
  %10 = bitcast [100 x double]* %5 to i8*
  call void @llvm.lifetime.start.p0i8(i64 800, i8* nonnull %10) #3
  %11 = call i32 (i8*, ...) @__isoc99_scanf(i8* getelementptr inbounds ([3 x i8], [3 x i8]* @.str, i64 0, i64 0), i32* nonnull %1)
  %12 = load i32, i32* %1, align 4, !tbaa !5
  %13 = icmp sgt i32 %12, 0
  br i1 %13, label %20, label %66

14:                                               ; preds = %20
  %15 = getelementptr inbounds [100 x i32], [100 x i32]* %2, i64 0, i64 0
  %16 = getelementptr inbounds [100 x i32], [100 x i32]* %3, i64 0, i64 0
  %17 = icmp sgt i32 %25, 0
  br i1 %17, label %18, label %66

18:                                               ; preds = %14
  %19 = zext i32 %25 to i64
  br label %29

20:                                               ; preds = %0, %20
  %21 = phi i64 [ %24, %20 ], [ 0, %0 ]
  %22 = getelementptr inbounds [100 x i32], [100 x i32]* %4, i64 0, i64 %21
  %23 = call i32 (i8*, ...) @__isoc99_scanf(i8* getelementptr inbounds ([3 x i8], [3 x i8]* @.str, i64 0, i64 0), i32* nonnull %22)
  %24 = add nuw nsw i64 %21, 1
  %25 = load i32, i32* %1, align 4, !tbaa !5
  %26 = sext i32 %25 to i64
  %27 = icmp slt i64 %24, %26
  br i1 %27, label %20, label %14, !llvm.loop !9

28:                                               ; preds = %53
  br i1 %17, label %57, label %66

29:                                               ; preds = %18, %53
  %30 = phi i64 [ 0, %18 ], [ %55, %53 ]
  %31 = getelementptr inbounds [100 x double], [100 x double]* %5, i64 0, i64 %30
  %32 = getelementptr inbounds [100 x i32], [100 x i32]* %4, i64 0, i64 %30
  %33 = load i32, i32* %32, align 4, !tbaa !5
  %34 = icmp sgt i32 %33, 0
  br i1 %34, label %35, label %53

35:                                               ; preds = %29
  %36 = zext i32 %33 to i64
  br label %37

37:                                               ; preds = %35, %37
  %38 = phi i64 [ 0, %35 ], [ %42, %37 ]
  %39 = phi double [ 0.000000e+00, %35 ], [ %51, %37 ]
  store i32 2, i32* %15, align 16, !tbaa !5
  store i32 1, i32* %16, align 16, !tbaa !5
  %40 = getelementptr inbounds [100 x i32], [100 x i32]* %2, i64 0, i64 %38
  %41 = load i32, i32* %40, align 4, !tbaa !5
  %42 = add nuw nsw i64 %38, 1
  %43 = getelementptr inbounds [100 x i32], [100 x i32]* %3, i64 0, i64 %42
  store i32 %41, i32* %43, align 4, !tbaa !5
  %44 = getelementptr inbounds [100 x i32], [100 x i32]* %3, i64 0, i64 %38
  %45 = load i32, i32* %44, align 4, !tbaa !5
  %46 = add nsw i32 %45, %41
  %47 = getelementptr inbounds [100 x i32], [100 x i32]* %2, i64 0, i64 %42
  store i32 %46, i32* %47, align 4, !tbaa !5
  %48 = sitofp i32 %41 to double
  %49 = sitofp i32 %45 to double
  %50 = fdiv double %48, %49
  %51 = fadd double %39, %50
  %52 = icmp eq i64 %42, %36
  br i1 %52, label %53, label %37, !llvm.loop !11

53:                                               ; preds = %37, %29
  %54 = phi double [ 0.000000e+00, %29 ], [ %51, %37 ]
  store double %54, double* %31, align 8, !tbaa !12
  %55 = add nuw nsw i64 %30, 1
  %56 = icmp eq i64 %55, %19
  br i1 %56, label %28, label %29, !llvm.loop !14

57:                                               ; preds = %28, %57
  %58 = phi i64 [ %62, %57 ], [ 0, %28 ]
  %59 = getelementptr inbounds [100 x double], [100 x double]* %5, i64 0, i64 %58
  %60 = load double, double* %59, align 8, !tbaa !12
  %61 = call i32 (i8*, ...) @printf(i8* nonnull dereferenceable(1) getelementptr inbounds ([7 x i8], [7 x i8]* @.str.1, i64 0, i64 0), double %60)
  %62 = add nuw nsw i64 %58, 1
  %63 = load i32, i32* %1, align 4, !tbaa !5
  %64 = sext i32 %63 to i64
  %65 = icmp slt i64 %62, %64
  br i1 %65, label %57, label %66, !llvm.loop !15

66:                                               ; preds = %57, %14, %0, %28
  call void @llvm.lifetime.end.p0i8(i64 800, i8* nonnull %10) #3
  call void @llvm.lifetime.end.p0i8(i64 400, i8* nonnull %9) #3
  call void @llvm.lifetime.end.p0i8(i64 400, i8* nonnull %8) #3
  call void @llvm.lifetime.end.p0i8(i64 400, i8* nonnull %7) #3
  call void @llvm.lifetime.end.p0i8(i64 4, i8* nonnull %6) #3
  ret i32 0
}

; Function Attrs: argmemonly mustprogress nofree nosync nounwind willreturn
declare void @llvm.lifetime.start.p0i8(i64 immarg, i8* nocapture) #1

; Function Attrs: nofree nounwind
declare noundef i32 @__isoc99_scanf(i8* nocapture noundef readonly, ...) local_unnamed_addr #2

; Function Attrs: nofree nounwind
declare noundef i32 @printf(i8* nocapture noundef readonly, ...) local_unnamed_addr #2

; Function Attrs: argmemonly mustprogress nofree nosync nounwind willreturn
declare void @llvm.lifetime.end.p0i8(i64 immarg, i8* nocapture) #1


!llvm.module.flags = !{!0, !1, !2, !3}
!llvm.ident = !{!4}

!0 = !{i32 1, !"wchar_size", i32 4}
!1 = !{i32 7, !"PIC Level", i32 2}
!2 = !{i32 7, !"PIE Level", i32 2}
!3 = !{i32 7, !"uwtable", i32 1}
!4 = !{!"clang version 13.0.0"}
!5 = !{!6, !6, i64 0}
!6 = !{!"int", !7, i64 0}
!7 = !{!"omnipotent char", !8, i64 0}
!8 = !{!"Simple C/C++ TBAA"}
!9 = distinct !{!9, !10}
!10 = !{!"llvm.loop.mustprogress"}
!11 = distinct !{!11, !10}
!12 = !{!13, !13, i64 0}
!13 = !{!"double", !7, i64 0}
!14 = distinct !{!14, !10}
!15 = distinct !{!15, !10}
